target datalayout = "e-m:e-p270:32:32-p271:32:32-p272:64:64-i64:64-i128:128-f80:128-n8:16:32:64-S128"
target triple = "x86_64-pc-linux-gnu"

%struct.PyVarObject = type { %struct._object, i64 }
%struct._object = type { %union.anon, ptr }
%union.anon = type { i64 }
%struct._typeobject = type { %struct.PyVarObject, ptr, i64, i64, ptr, i64, ptr, ptr, ptr, ptr, ptr, ptr, ptr, ptr, ptr, ptr, ptr, ptr, ptr, i64, ptr, ptr, ptr, ptr, i64, ptr, ptr, ptr, ptr, ptr, ptr, ptr, ptr, ptr, i64, ptr, ptr, ptr, ptr, ptr, ptr, ptr, ptr, ptr, ptr, ptr, i32, ptr, ptr, i8, i16 }
%struct.anon = type { i32, i32 }
%struct.PyTupleObject = type { %struct.PyVarObject, [1 x ptr] }

@.str.47 = private unnamed_addr constant [18 x i8] c"PyTuple_Check(op)\00", align 1
@.str.48 = private unnamed_addr constant [41 x i8] c"../cpython/Include/cpython/tupleobject.h\00", align 1
@PyLong_Type = external global %struct._typeobject, align 8
@.str.49 = private unnamed_addr constant [28 x i8] c"Py_TYPE(ob) != &PyLong_Type\00", align 1
@.str.50 = private unnamed_addr constant [28 x i8] c"../cpython/Include/object.h\00", align 1
@__PRETTY_FUNCTION__.Py_SIZE = private unnamed_addr constant [31 x i8] c"Py_ssize_t Py_SIZE(PyObject *)\00", align 1
@PyBool_Type = external global %struct._typeobject, align 8
@.str.51 = private unnamed_addr constant [28 x i8] c"Py_TYPE(ob) != &PyBool_Type\00", align 1
@__PRETTY_FUNCTION__.PyTuple_SET_ITEM = private unnamed_addr constant [58 x i8] c"void PyTuple_SET_ITEM(PyObject *, Py_ssize_t, PyObject *)\00", align 1
@.str.57 = private unnamed_addr constant [11 x i8] c"0 <= index\00", align 1
@.str.58 = private unnamed_addr constant [23 x i8] c"index < Py_SIZE(tuple)\00", align 1

; Function Attrs: inlinehint nounwind uwtable
define internal i64 @Py_SIZE(ptr noundef %0) #5 {
  %2 = alloca ptr, align 8
  store ptr %0, ptr %2, align 8, !tbaa !3
  %3 = load ptr, ptr %2, align 8, !tbaa !3
  %4 = call ptr @_Py_TYPE(ptr noundef %3)
  %5 = icmp ne ptr %4, @PyLong_Type
  br i1 %5, label %6, label %7

6:                                                ; preds = %1
  br label %9

7:                                                ; preds = %1
  call void @__assert_fail(ptr noundef @.str.49, ptr noundef @.str.50, i32 noundef 282, ptr noundef @__PRETTY_FUNCTION__.Py_SIZE) #11
  unreachable

8:                                                ; No predecessors!
  br label %9

9:                                                ; preds = %8, %6
  %10 = load ptr, ptr %2, align 8, !tbaa !3
  %11 = call ptr @_Py_TYPE(ptr noundef %10)
  %12 = icmp ne ptr %11, @PyBool_Type
  br i1 %12, label %13, label %14

13:                                               ; preds = %9
  br label %16

14:                                               ; preds = %9
  call void @__assert_fail(ptr noundef @.str.51, ptr noundef @.str.50, i32 noundef 283, ptr noundef @__PRETTY_FUNCTION__.Py_SIZE) #11
  unreachable

15:                                               ; No predecessors!
  br label %16

16:                                               ; preds = %15, %13
  %17 = load ptr, ptr %2, align 8, !tbaa !3
  %18 = getelementptr inbounds nuw %struct.PyVarObject, ptr %17, i32 0, i32 1
  %19 = load i64, ptr %18, align 8, !tbaa !32
  ret i64 %19
}

; Function Attrs: inlinehint nounwind uwtable
define internal i32 @PyType_HasFeature(ptr noundef %0, i64 noundef %1) #5 {
  %3 = alloca ptr, align 8
  %4 = alloca i64, align 8
  %5 = alloca i64, align 8
  store ptr %0, ptr %3, align 8, !tbaa !26
  store i64 %1, ptr %4, align 8, !tbaa !25
  call void @llvm.lifetime.start.p0(i64 8, ptr %5) #10
  %6 = load ptr, ptr %3, align 8, !tbaa !26
  %7 = getelementptr inbounds nuw %struct._typeobject, ptr %6, i32 0, i32 19
  %8 = load i64, ptr %7, align 8, !tbaa !27
  store i64 %8, ptr %5, align 8, !tbaa !25
  %9 = load i64, ptr %5, align 8, !tbaa !25
  %10 = load i64, ptr %4, align 8, !tbaa !25
  %11 = and i64 %9, %10
  %12 = icmp ne i64 %11, 0
  %13 = zext i1 %12 to i32
  call void @llvm.lifetime.end.p0(i64 8, ptr %5) #10
  ret i32 %13
}

; Function Attrs: inlinehint nounwind uwtable
define internal ptr @_Py_TYPE(ptr noundef %0) #5 {
  %2 = alloca ptr, align 8
  store ptr %0, ptr %2, align 8, !tbaa !3
  %3 = load ptr, ptr %2, align 8, !tbaa !3
  %4 = getelementptr inbounds nuw %struct._object, ptr %3, i32 0, i32 1
  %5 = load ptr, ptr %4, align 8, !tbaa !28
  ret ptr %5
}

; Function Attrs: alwaysinline nounwind uwtable
define internal i32 @_Py_IsImmortal(ptr noundef %0) #3 {
  %2 = alloca ptr, align 8
  store ptr %0, ptr %2, align 8, !tbaa !3
  %3 = load ptr, ptr %2, align 8, !tbaa !3
  %4 = getelementptr inbounds nuw %struct._object, ptr %3, i32 0, i32 0
  %5 = getelementptr inbounds nuw %struct.anon, ptr %4, i32 0, i32 0
  %6 = load i32, ptr %5, align 8, !tbaa !20
  %7 = icmp slt i32 %6, 0
  %8 = zext i1 %7 to i32
  ret i32 %8
}

; Function Attrs: inlinehint nounwind uwtable
define internal void @PyTuple_SET_ITEM(ptr noundef %0, i64 noundef %1, ptr noundef %2) #5 {
  %4 = alloca ptr, align 8
  %5 = alloca i64, align 8
  %6 = alloca ptr, align 8
  %7 = alloca ptr, align 8
  store ptr %0, ptr %4, align 8, !tbaa !3
  store i64 %1, ptr %5, align 8, !tbaa !25
  store ptr %2, ptr %6, align 8, !tbaa !3
  call void @llvm.lifetime.start.p0(i64 8, ptr %7) #10
  %8 = load ptr, ptr %4, align 8, !tbaa !3
  %9 = call ptr @_Py_TYPE(ptr noundef %8)
  %10 = call i32 @PyType_HasFeature(ptr noundef %9, i64 noundef 67108864)
  %11 = icmp ne i32 %10, 0
  br i1 %11, label %12, label %13

12:                                               ; preds = %3
  br label %15

13:                                               ; preds = %3
  call void @__assert_fail(ptr noundef @.str.47, ptr noundef @.str.48, i32 noundef 32, ptr noundef @__PRETTY_FUNCTION__.PyTuple_SET_ITEM) #11
  unreachable

14:                                               ; No predecessors!
  br label %15

15:                                               ; preds = %14, %12
  %16 = load ptr, ptr %4, align 8, !tbaa !3
  store ptr %16, ptr %7, align 8, !tbaa !31
  %17 = load i64, ptr %5, align 8, !tbaa !25
  %18 = icmp sle i64 0, %17
  br i1 %18, label %19, label %20

19:                                               ; preds = %15
  br label %22

20:                                               ; preds = %15
  call void @__assert_fail(ptr noundef @.str.57, ptr noundef @.str.48, i32 noundef 33, ptr noundef @__PRETTY_FUNCTION__.PyTuple_SET_ITEM) #11
  unreachable

21:                                               ; No predecessors!
  br label %22

22:                                               ; preds = %21, %19
  %23 = load i64, ptr %5, align 8, !tbaa !25
  %24 = load ptr, ptr %7, align 8, !tbaa !31
  %25 = call i64 @Py_SIZE(ptr noundef %24)
  %26 = icmp slt i64 %23, %25
  br i1 %26, label %27, label %28

27:                                               ; preds = %22
  br label %30

28:                                               ; preds = %22
  call void @__assert_fail(ptr noundef @.str.58, ptr noundef @.str.48, i32 noundef 34, ptr noundef @__PRETTY_FUNCTION__.PyTuple_SET_ITEM) #11
  unreachable

29:                                               ; No predecessors!
  br label %30

30:                                               ; preds = %29, %27
  %31 = load ptr, ptr %6, align 8, !tbaa !3
  %32 = load ptr, ptr %7, align 8, !tbaa !31
  %33 = getelementptr inbounds nuw %struct.PyTupleObject, ptr %32, i32 0, i32 1
  %34 = load i64, ptr %5, align 8, !tbaa !25
  %35 = getelementptr [1 x ptr], ptr %33, i64 0, i64 %34
  store ptr %31, ptr %35, align 8, !tbaa !3
  call void @llvm.lifetime.end.p0(i64 8, ptr %7) #10
  ret void
}

; Function Attrs: alwaysinline nounwind uwtable
define internal void @Py_DECREF(ptr noundef %0) #3 {
  %2 = alloca ptr, align 8
  store ptr %0, ptr %2, align 8, !tbaa !3
  %3 = load ptr, ptr %2, align 8, !tbaa !3
  %4 = call i32 @_Py_IsImmortal(ptr noundef %3)
  %5 = icmp ne i32 %4, 0
  br i1 %5, label %6, label %7

6:                                                ; preds = %1
  br label %16

7:                                                ; preds = %1
  %8 = load ptr, ptr %2, align 8, !tbaa !3
  %9 = getelementptr inbounds nuw %struct._object, ptr %8, i32 0, i32 0
  %10 = getelementptr inbounds nuw %struct.anon, ptr %9, i32 0, i32 0
  %11 = load i32, ptr %10, align 8, !tbaa !20
  %12 = add i32 %11, -1
  store i32 %12, ptr %10, align 8, !tbaa !20
  %13 = icmp eq i32 %12, 0
  br i1 %13, label %14, label %16

14:                                               ; preds = %7
  %15 = load ptr, ptr %2, align 8, !tbaa !3
  call void @_Py_Dealloc(ptr noundef %15)
  br label %16

16:                                               ; preds = %6, %14, %7
  ret void
}

; Function Attrs: nounwind uwtable
define internal ptr @_testcapi_raise_exception_impl(ptr noundef %0, ptr noundef %1, i32 noundef %2) #0 {
  %4 = alloca ptr, align 8
  %5 = alloca ptr, align 8
  %6 = alloca ptr, align 8
  %7 = alloca i32, align 4
  %8 = alloca ptr, align 8
  %9 = alloca i32, align 4
  %10 = alloca i32, align 4
  %11 = alloca ptr, align 8
  store ptr %0, ptr %5, align 8, !tbaa !3
  store ptr %1, ptr %6, align 8, !tbaa !3
  store i32 %2, ptr %7, align 4, !tbaa !21
  call void @llvm.lifetime.start.p0(i64 8, ptr %8) #10
  %12 = load i32, ptr %7, align 4, !tbaa !21
  %13 = sext i32 %12 to i64
  %14 = call ptr @PyTuple_New(i64 noundef %13)
  store ptr %14, ptr %8, align 8, !tbaa !3
  %15 = load ptr, ptr %8, align 8, !tbaa !3
  %16 = icmp eq ptr %15, null
  br i1 %16, label %17, label %18

17:                                               ; preds = %3
  store ptr null, ptr %4, align 8
  store i32 1, ptr %9, align 4
  br label %49

18:                                               ; preds = %3
  call void @llvm.lifetime.start.p0(i64 4, ptr %10) #10
  store i32 0, ptr %10, align 4, !tbaa !21
  br label %19

19:                                               ; preds = %40, %18
  %20 = load i32, ptr %10, align 4, !tbaa !21
  %21 = load i32, ptr %7, align 4, !tbaa !21
  %22 = icmp slt i32 %20, %21
  br i1 %22, label %24, label %23

23:                                               ; preds = %19
  store i32 2, ptr %9, align 4
  br label %43

24:                                               ; preds = %19
  call void @llvm.lifetime.start.p0(i64 8, ptr %11) #10
  %25 = load i32, ptr %10, align 4, !tbaa !21
  %26 = sext i32 %25 to i64
  %27 = call ptr @PyLong_FromLong(i64 noundef %26)
  store ptr %27, ptr %11, align 8, !tbaa !3
  %28 = load ptr, ptr %11, align 8, !tbaa !3
  %29 = icmp eq ptr %28, null
  br i1 %29, label %30, label %32

30:                                               ; preds = %24
  %31 = load ptr, ptr %8, align 8, !tbaa !3
  call void @Py_DECREF(ptr noundef %31)
  store ptr null, ptr %4, align 8
  store i32 1, ptr %9, align 4
  br label %37

32:                                               ; preds = %24
  %33 = load ptr, ptr %8, align 8, !tbaa !3
  %34 = load i32, ptr %10, align 4, !tbaa !21
  %35 = sext i32 %34 to i64
  %36 = load ptr, ptr %11, align 8, !tbaa !3
  call void @PyTuple_SET_ITEM(ptr noundef %33, i64 noundef %35, ptr noundef %36)
  store i32 0, ptr %9, align 4
  br label %37

37:                                               ; preds = %32, %30
  call void @llvm.lifetime.end.p0(i64 8, ptr %11) #10
  %38 = load i32, ptr %9, align 4
  switch i32 %38, label %43 [
    i32 0, label %39
  ]

39:                                               ; preds = %37
  br label %40

40:                                               ; preds = %39
  %41 = load i32, ptr %10, align 4, !tbaa !21
  %42 = add i32 %41, 1
  store i32 %42, ptr %10, align 4, !tbaa !21
  br label %19, !llvm.loop !33

43:                                               ; preds = %37, %23
  call void @llvm.lifetime.end.p0(i64 4, ptr %10) #10
  %44 = load i32, ptr %9, align 4
  switch i32 %44, label %49 [
    i32 2, label %45
  ]

45:                                               ; preds = %43
  %46 = load ptr, ptr %6, align 8, !tbaa !3
  %47 = load ptr, ptr %8, align 8, !tbaa !3
  call void @PyErr_SetObject(ptr noundef %46, ptr noundef %47)
  %48 = load ptr, ptr %8, align 8, !tbaa !3
  call void @Py_DECREF(ptr noundef %48)
  store ptr null, ptr %4, align 8
  store i32 1, ptr %9, align 4
  br label %49

49:                                               ; preds = %45, %43, %17
  call void @llvm.lifetime.end.p0(i64 8, ptr %8) #10
  %50 = load ptr, ptr %4, align 8
  ret ptr %50
}