; Function Attrs: nounwind uwtable
define internal fastcc void @_testcapi_raise_exception_impl(ptr noundef %0, i32 noundef %1) unnamed_addr #0 {
  %3 = sext i32 %1 to i64
  %4 = tail call ptr @PyTuple_New(i64 noundef %3) #8
  %5 = icmp eq ptr %4, null
  br i1 %5, label %Py_DECREF.exit, label %.preheader

.preheader:                                       ; preds = %2
  %.not221 = icmp sgt i32 %1, 0
  br i1 %.not221, label %.lr.ph, label %.critedge

.lr.ph:                                           ; preds = %.preheader
  %6 = getelementptr i8, ptr %4, i64 8
  %7 = getelementptr inbounds nuw i8, ptr %4, i64 16
  %8 = getelementptr inbounds nuw i8, ptr %4, i64 24
  %wide.trip.count = zext nneg i32 %1 to i64
  br label %9

9:                                                ; preds = %.lr.ph, %27
  %indvars.iv = phi i64 [ 0, %.lr.ph ], [ %indvars.iv.next, %27 ]
  %10 = tail call ptr @PyLong_FromLong(i64 noundef %indvars.iv) #8
  %.not = icmp eq ptr %10, null
  br i1 %.not, label %11, label %16

11:                                               ; preds = %9
  %12 = load i32, ptr %4, align 8, !tbaa !20
  %.not.i23 = icmp sgt i32 %12, -1
  br i1 %.not.i23, label %13, label %Py_DECREF.exit

13:                                               ; preds = %11
  %14 = add nsw i32 %12, -1
  store i32 %14, ptr %4, align 8, !tbaa !20
  %15 = icmp eq i32 %14, 0
  br i1 %15, label %Py_DECREF.exit.sink.split, label %Py_DECREF.exit

16:                                               ; preds = %9
  %.val.i = load ptr, ptr %6, align 8, !tbaa !22
  %17 = getelementptr i8, ptr %.val.i, i64 168
  %.val7.i = load i64, ptr %17, align 8, !tbaa !23
  %18 = and i64 %.val7.i, 67108864
  %.not.i26 = icmp eq i64 %18, 0
  br i1 %.not.i26, label %19, label %20

19:                                               ; preds = %16
  tail call void @__assert_fail(ptr noundef nonnull @.str.47, ptr noundef nonnull @.str.48, i32 noundef 32, ptr noundef nonnull @__PRETTY_FUNCTION__.PyTuple_SET_ITEM) #9
  unreachable

20:                                               ; preds = %16
  %.not.i.i = icmp eq ptr %.val.i, @PyLong_Type
  br i1 %.not.i.i, label %21, label %22

21:                                               ; preds = %20
  tail call void @__assert_fail(ptr noundef nonnull @.str.49, ptr noundef nonnull @.str.50, i32 noundef 282, ptr noundef nonnull @__PRETTY_FUNCTION__.Py_SIZE) #9
  unreachable

22:                                               ; preds = %20
  %.not3.i.i = icmp eq ptr %.val.i, @PyBool_Type
  br i1 %.not3.i.i, label %23, label %Py_SIZE.exit.i

23:                                               ; preds = %22
  tail call void @__assert_fail(ptr noundef nonnull @.str.51, ptr noundef nonnull @.str.50, i32 noundef 283, ptr noundef nonnull @__PRETTY_FUNCTION__.Py_SIZE) #9
  unreachable

Py_SIZE.exit.i:                                   ; preds = %22
  %24 = load i64, ptr %7, align 8, !tbaa !25
  %25 = icmp sgt i64 %24, %indvars.iv
  br i1 %25, label %27, label %26

26:                                               ; preds = %Py_SIZE.exit.i
  tail call void @__assert_fail(ptr noundef nonnull @.str.58, ptr noundef nonnull @.str.48, i32 noundef 34, ptr noundef nonnull @__PRETTY_FUNCTION__.PyTuple_SET_ITEM) #9
  unreachable

27:                                               ; preds = %Py_SIZE.exit.i
  %28 = getelementptr [1 x ptr], ptr %8, i64 0, i64 %indvars.iv
  store ptr %10, ptr %28, align 8, !tbaa !3
  %indvars.iv.next = add nuw nsw i64 %indvars.iv, 1
  %exitcond.not = icmp eq i64 %indvars.iv.next, %wide.trip.count
  br i1 %exitcond.not, label %.critedge, label %9, !llvm.loop !27

.critedge:                                        ; preds = %27, %.preheader
  tail call void @PyErr_SetObject(ptr noundef %0, ptr noundef nonnull %4) #8
  %29 = load i32, ptr %4, align 8, !tbaa !20
  %.not.i = icmp sgt i32 %29, -1
  br i1 %.not.i, label %30, label %Py_DECREF.exit

30:                                               ; preds = %.critedge
  %31 = add nsw i32 %29, -1
  store i32 %31, ptr %4, align 8, !tbaa !20
  %32 = icmp eq i32 %31, 0
  br i1 %32, label %Py_DECREF.exit.sink.split, label %Py_DECREF.exit

Py_DECREF.exit.sink.split:                        ; preds = %30, %13
  tail call void @_Py_Dealloc(ptr noundef nonnull %4) #8
  br label %Py_DECREF.exit

Py_DECREF.exit:                                   ; preds = %Py_DECREF.exit.sink.split, %30, %.critedge, %11, %13, %2
  ret void
}